target datalayout = "e-m:e-p270:32:32-p271:32:32-p272:64:64-i64:64-i128:128-f80:128-n8:16:32:64-S128"
target triple = "x86_64-pc-linux-gnu"

%struct.nmin_data = type { i64, i64, i64, i64, i64, ptr, i8 }
%struct.RBasic = type { i64, i64 }

@.str.33 = private unnamed_addr constant [4 x i8] c"min\00", align 1
@.str.34 = private unnamed_addr constant [4 x i8] c"max\00", align 1
@rb_eRuntimeError = external global i64, align 8
@.str.75 = private unnamed_addr constant [15 x i8] c"%s%s reentered\00", align 1
@.str.76 = private unnamed_addr constant [4 x i8] c"_by\00", align 1
@.str.77 = private unnamed_addr constant [1 x i8] zeroinitializer, align 1

; Function Attrs: nounwind sspstrong uwtable
define internal i64 @cmpint_reenter_check(ptr noundef %0, i64 noundef %1) #0 {
  %3 = alloca ptr, align 8
  %4 = alloca i64, align 8
  store ptr %0, ptr %3, align 8, !tbaa !27
  store i64 %1, ptr %4, align 8, !tbaa !14
  %5 = load ptr, ptr %3, align 8, !tbaa !27
  %6 = getelementptr inbounds nuw %struct.nmin_data, ptr %5, i32 0, i32 3
  %7 = load i64, ptr %6, align 8, !tbaa !20
  %8 = inttoptr i64 %7 to ptr
  %9 = getelementptr inbounds nuw %struct.RBasic, ptr %8, i32 0, i32 1
  %10 = load i64, ptr %9, align 8, !tbaa !43
  %11 = icmp ne i64 %10, 0
  br i1 %11, label %12, label %30

12:                                               ; preds = %2
  %13 = load i64, ptr @rb_eRuntimeError, align 8, !tbaa !14
  %14 = load ptr, ptr %3, align 8, !tbaa !27
  %15 = getelementptr inbounds nuw %struct.nmin_data, ptr %14, i32 0, i32 6
  %16 = load i8, ptr %15, align 8
  %17 = shl i8 %16, 7
  %18 = ashr i8 %17, 7
  %19 = sext i8 %18 to i32
  %20 = icmp ne i32 %19, 0
  %21 = select i1 %20, ptr @.str.34, ptr @.str.33
  %22 = load ptr, ptr %3, align 8, !tbaa !27
  %23 = getelementptr inbounds nuw %struct.nmin_data, ptr %22, i32 0, i32 6
  %24 = load i8, ptr %23, align 8
  %25 = shl i8 %24, 6
  %26 = ashr i8 %25, 7
  %27 = sext i8 %26 to i32
  %28 = icmp ne i32 %27, 0
  %29 = select i1 %28, ptr @.str.76, ptr @.str.77
  call void (i64, ptr, ...) @rb_raise(i64 noundef %13, ptr noundef @.str.75, ptr noundef %21, ptr noundef %29) #23
  unreachable

30:                                               ; preds = %2
  %31 = load i64, ptr %4, align 8, !tbaa !14
  ret i64 %31
}

; Function Attrs: nounwind sspstrong uwtable
define internal i32 @nmin_block_cmp(ptr noundef %0, ptr noundef %1, ptr noundef %2) #0 {
  %4 = alloca ptr, align 8
  %5 = alloca ptr, align 8
  %6 = alloca ptr, align 8
  %7 = alloca ptr, align 8
  %8 = alloca i64, align 8
  %9 = alloca i64, align 8
  %10 = alloca i64, align 8
  store ptr %0, ptr %4, align 8, !tbaa !26
  store ptr %1, ptr %5, align 8, !tbaa !26
  store ptr %2, ptr %6, align 8, !tbaa !26
  call void @llvm.lifetime.start.p0(i64 8, ptr %7) #22
  %11 = load ptr, ptr %6, align 8, !tbaa !26
  store ptr %11, ptr %7, align 8, !tbaa !27
  call void @llvm.lifetime.start.p0(i64 8, ptr %8) #22
  %12 = load ptr, ptr %4, align 8, !tbaa !26
  %13 = load i64, ptr %12, align 8, !tbaa !14
  store i64 %13, ptr %8, align 8, !tbaa !14
  call void @llvm.lifetime.start.p0(i64 8, ptr %9) #22
  %14 = load ptr, ptr %5, align 8, !tbaa !26
  %15 = load i64, ptr %14, align 8, !tbaa !14
  store i64 %15, ptr %9, align 8, !tbaa !14
  call void @llvm.lifetime.start.p0(i64 8, ptr %10) #22
  %16 = load i64, ptr %8, align 8, !tbaa !14
  %17 = load i64, ptr %9, align 8, !tbaa !14
  %18 = call i64 (i32, ...) @rb_yield_values(i32 noundef 2, i64 noundef %16, i64 noundef %17)
  store i64 %18, ptr %10, align 8, !tbaa !14
  %19 = load ptr, ptr %7, align 8, !tbaa !27
  %20 = load i64, ptr %10, align 8, !tbaa !14
  %21 = call i64 @cmpint_reenter_check(ptr noundef %19, i64 noundef %20)
  %22 = load i64, ptr %10, align 8, !tbaa !14
  %23 = load i64, ptr %8, align 8, !tbaa !14
  %24 = load i64, ptr %9, align 8, !tbaa !14
  %25 = call i32 @rb_cmpint(i64 noundef %22, i64 noundef %23, i64 noundef %24)
  call void @llvm.lifetime.end.p0(i64 8, ptr %10) #22
  call void @llvm.lifetime.end.p0(i64 8, ptr %9) #22
  call void @llvm.lifetime.end.p0(i64 8, ptr %8) #22
  call void @llvm.lifetime.end.p0(i64 8, ptr %7) #22
  ret i32 %25
}