; Function Attrs: nounwind sspstrong uwtable
define internal i32 @nmin_block_cmp(ptr noundef readonly captures(none) %0, ptr noundef readonly captures(none) %1, ptr noundef readonly captures(none) %2) #0 {
  %4 = load i64, ptr %0, align 8, !tbaa !7
  %5 = load i64, ptr %1, align 8, !tbaa !7
  %6 = tail call i64 (i32, ...) @rb_yield_values(i32 noundef 2, i64 noundef %4, i64 noundef %5) #14
  %7 = getelementptr inbounds nuw i8, ptr %2, i64 24
  %8 = load i64, ptr %7, align 8, !tbaa !17
  %9 = inttoptr i64 %8 to ptr
  %10 = getelementptr inbounds nuw i8, ptr %9, i64 8
  %11 = load i64, ptr %10, align 8, !tbaa !29
  %.not.i = icmp eq i64 %11, 0
  br i1 %.not.i, label %cmpint_reenter_check.exit, label %12

12:                                               ; preds = %3
  %13 = load i64, ptr @rb_eRuntimeError, align 8, !tbaa !7
  %14 = getelementptr inbounds nuw i8, ptr %2, i64 48
  %15 = load i8, ptr %14, align 8
  %16 = and i8 %15, 1
  %.not3.i = icmp eq i8 %16, 0
  %17 = select i1 %.not3.i, ptr @.str.33, ptr @.str.34
  %.mask.i = and i8 %15, 2
  %.not4.i = icmp eq i8 %.mask.i, 0
  %18 = select i1 %.not4.i, ptr @.str.77, ptr @.str.76
  tail call void (i64, ptr, ...) @rb_raise(i64 noundef %13, ptr noundef nonnull @.str.75, ptr noundef nonnull %17, ptr noundef nonnull %18) #15
  unreachable

cmpint_reenter_check.exit:                        ; preds = %3
  %19 = tail call i32 @rb_cmpint(i64 noundef %6, i64 noundef %4, i64 noundef %5) #14
  ret i32 %19
}